(dp0
S'PROFILE_SHOW_ROIFIT'
p1
I00
sS'PROFILE_NICKNAME'
p2
S'LM10'
p3
sS'PROFILE_DELAY'
p4
I1000
sS'PROFILE_INSERT_RECT'
p5
(lp6
I10
aI10
aI20
aI20
asS'PROFILE_COLORTABLE'
p7
S'bipolar'
p8
sS'PROFILE_INSERTCENTER_LINES'
p9
(lp10
(lp11
I150
aI200
aI255
aI255
aaI1
acsip
_unpickle_enum
p12
(S'PyQt4.QtCore'
p13
S'PenStyle'
p14
I1
tp15
Rp16
asS'PROFILE_NAME'
p17
S'P02.1 Camera - LM10'
p18
sS'PROFILE_SHOW_ROIVIEW'
p19
I01
sS'PROFILE_INSERTVIEW_LINES'
p20
(lp21
(lp22
I255
aI0
aI0
aI100
aaI1
ag16
asS'PROFILE_TANGOATTR'
p23
(lp24
(dp25
S'ROI_VIEW'
p26
(lp27
I463
aI638
aI100
aI100
asS'cmd'
p28
NsS'PENVIEW'
p29
(lp30
g12
(g13
S'GlobalColor'
p31
I9
tp32
Rp33
aI1
ag16
asS'nick-name'
p34
g3
sasS'PROFILE_CONTROLLERS'
p35
(lp36
(dp37
g28
S'/usr/bin/gedit'
p38
sS'ARGS'
p39
(lp40
S'C:/Users/glazyrin/Dropbox/Mine/PyCharm/opencv_test/0.2/profiles\\profile_lm10.py'
p41
asg34
S'Profile editor'
p42
sa(dp43
g28
S'/usr/bin/gnome-terminal'
p44
sg39
(lp45
sg34
S'Command line'
p46
sas.