(dp0
S'PROFILE_SHOW_ROIFIT'
p1
I00
sS'PROFILE_NICKNAME'
p2
S'LM10'
p3
sS'PROFILE_DELAY'
p4
I1000
sS'PROFILE_INSERT_RECT'
p5
(lp6
I10
aI10
aI20
aI20
asS'PROFILE_COLORTABLE'
p7
S'bipolar'
p8
sS'PROFILE_INSERTCENTER_LINES'
p9
(lp10
(lp11
I150
aI200
aI255
aI255
aaI1
acsip
_unpickle_enum
p12
(S'PyQt4.QtCore'
p13
S'PenStyle'
p14
I1
tp15
Rp16
asS'PROFILE_NAME'
p17
S'P02.1 Camera - LM10'
p18
sS'PROFILE_SHOW_ROIVIEW'
p19
I01
sS'PROFILE_INSERTVIEW_LINES'
p20
(lp21
(lp22
I255
aI0
aI0
aI100
aaI1
ag12
(g13
S'PenStyle'
p23
I1
tp24
Rp25
asS'PROFILE_TANGOATTR'
p26
(lp27
(dp28
S'ROI_VIEW'
p29
(lp30
I470
aI638
aI100
aI100
asS'cmd'
p31
NsS'PENVIEW'
p32
(lp33
g12
(g13
S'GlobalColor'
p34
I9
tp35
Rp36
aI1
ag12
(g13
S'PenStyle'
p37
I1
tp38
Rp39
asS'nick-name'
p40
g3
sasS'PROFILE_CONTROLLERS'
p41
(lp42
(dp43
g31
S'/usr/bin/gedit'
p44
sS'ARGS'
p45
(lp46
S'C:/Users/glazyrin/Dropbox/Mine/PyCharm/opencv_test/0.2/profiles\\profile_lm10.py'
p47
asg40
S'Profile editor'
p48
sa(dp49
g31
S'/usr/bin/gnome-terminal'
p50
sg45
(lp51
sg40
S'Command line'
p52
sas.